(dp0
S'show_imports'
p1
I1
sS'prj_name'
p2
S'TAINT'
p3
sS'docformat'
p4
S'restructuredtext'
p5
sS'inheritance'
p6
S'grouped'
p7
sS'help'
p8
NsS'modules'
p9
(VD:/Alexandros/Documents/GitHub/TextEngine/src/core/__init__.py
p10
VD:/Alexandros/Documents/GitHub/TextEngine/src/core/components/__init__.py
p11
VD:/Alexandros/Documents/GitHub/TextEngine/src/core/components/customisable/__init__.py
p12
VD:/Alexandros/Documents/GitHub/TextEngine/src/core/components/customisable/conditions.py
p13
VD:/Alexandros/Documents/GitHub/TextEngine/src/core/components/customisable/effects.py
p14
VD:/Alexandros/Documents/GitHub/TextEngine/src/dataParser/__init__.py
p15
tp16
sS'private'
p17
I1
sS'prj_url'
p18
S'http://gouvatsos.com/Media/Default/Apps/TextEngineEditor/'
p19
sS'introspect_or_parse'
p20
S'both'
p21
sS'frames'
p22
I1
sS'css'
p23
S'black'
p24
sS'target'
p25
S'D:/Alexandros/Documents/GitHub/TextEngine'
p26
s.